target datalayout = "e-m:e-p270:32:32-p271:32:32-p272:64:64-i64:64-i128:128-f80:128-n8:16:32:64-S128"
target triple = "x86_64-pc-linux-gnu"

; Function Attrs: mustprogress nounwind uwtable
define hidden noundef i32 @_Z10solve_deg2dddRdS_(double noundef %0, double noundef %1, double noundef %2, ptr noundef nonnull align 8 dereferenceable(8) %3, ptr noundef nonnull align 8 dereferenceable(8) %4) #4 {
  %6 = alloca i32, align 4
  %7 = alloca double, align 8
  %8 = alloca double, align 8
  %9 = alloca double, align 8
  %10 = alloca ptr, align 8
  %11 = alloca ptr, align 8
  %12 = alloca double, align 8
  %13 = alloca double, align 8
  %14 = alloca double, align 8
  store double %0, ptr %7, align 8
  store double %1, ptr %8, align 8
  store double %2, ptr %9, align 8
  store ptr %3, ptr %10, align 8
  store ptr %4, ptr %11, align 8
  %15 = load double, ptr %8, align 8
  %16 = load double, ptr %8, align 8
  %17 = load double, ptr %7, align 8
  %18 = fmul double 4.000000e+00, %17
  %19 = load double, ptr %9, align 8
  %20 = fmul double %18, %19
  %21 = fneg double %20
  %22 = call double @llvm.fmuladd.f64(double %15, double %16, double %21)
  store double %22, ptr %12, align 8
  %23 = load double, ptr %12, align 8
  %24 = fcmp olt double %23, 0.000000e+00
  br i1 %24, label %25, label %26

25:                                               ; preds = %5
  store i32 0, ptr %6, align 4
  br label %57

26:                                               ; preds = %5
  %27 = load double, ptr %7, align 8
  %28 = fdiv double 5.000000e-01, %27
  store double %28, ptr %13, align 8
  %29 = load double, ptr %12, align 8
  %30 = fcmp oeq double %29, 0.000000e+00
  br i1 %30, label %31, label %40

31:                                               ; preds = %26
  %32 = load double, ptr %8, align 8
  %33 = fneg double %32
  %34 = load double, ptr %13, align 8
  %35 = fmul double %33, %34
  %36 = load ptr, ptr %10, align 8
  store double %35, ptr %36, align 8
  %37 = load ptr, ptr %10, align 8
  %38 = load double, ptr %37, align 8
  %39 = load ptr, ptr %11, align 8
  store double %38, ptr %39, align 8
  store i32 1, ptr %6, align 4
  br label %57

40:                                               ; preds = %26
  %41 = load double, ptr %12, align 8
  %42 = call double @sqrt(double noundef %41) #3
  store double %42, ptr %14, align 8
  %43 = load double, ptr %8, align 8
  %44 = fneg double %43
  %45 = load double, ptr %14, align 8
  %46 = fadd double %44, %45
  %47 = load double, ptr %13, align 8
  %48 = fmul double %46, %47
  %49 = load ptr, ptr %10, align 8
  store double %48, ptr %49, align 8
  %50 = load double, ptr %8, align 8
  %51 = fneg double %50
  %52 = load double, ptr %14, align 8
  %53 = fsub double %51, %52
  %54 = load double, ptr %13, align 8
  %55 = fmul double %53, %54
  %56 = load ptr, ptr %11, align 8
  store double %55, ptr %56, align 8
  store i32 2, ptr %6, align 4
  br label %57

57:                                               ; preds = %40, %31, %25
  %58 = load i32, ptr %6, align 4
  ret i32 %58
}