; Function Attrs: mustprogress nofree nounwind willreturn memory(write) uwtable
define hidden noundef range(i32 0, 3) i32 @_Z10solve_deg2dddRdS_(double noundef %0, double noundef %1, double noundef %2, ptr nocapture noundef nonnull writeonly align 8 dereferenceable(8) %3, ptr nocapture noundef nonnull writeonly align 8 dereferenceable(8) %4) local_unnamed_addr #3 {
  %6 = fmul double %0, -4.000000e+00
  %7 = fmul double %6, %2
  %8 = tail call double @llvm.fmuladd.f64(double %1, double %1, double %7)
  %9 = fcmp olt double %8, 0.000000e+00
  br i1 %9, label %23, label %10

10:                                               ; preds = %5
  %11 = fdiv double 5.000000e-01, %0
  %12 = fcmp oeq double %8, 0.000000e+00
  br i1 %12, label %13, label %16

13:                                               ; preds = %10
  %14 = fneg double %1
  %15 = fmul double %11, %14
  store double %15, ptr %3, align 8
  br label %.sink.split

16:                                               ; preds = %10
  %17 = tail call double @sqrt(double noundef %8) #8
  %18 = fneg double %1
  %19 = fsub double %17, %1
  %20 = fmul double %11, %19
  store double %20, ptr %3, align 8
  %21 = fsub double %18, %17
  %22 = fmul double %11, %21
  br label %.sink.split

.sink.split:                                      ; preds = %13, %16
  %.sink = phi double [ %22, %16 ], [ %15, %13 ]
  %.0.ph = phi i32 [ 2, %16 ], [ 1, %13 ]
  store double %.sink, ptr %4, align 8
  br label %23

23:                                               ; preds = %.sink.split, %5
  %.0 = phi i32 [ 0, %5 ], [ %.0.ph, %.sink.split ]
  ret i32 %.0
}